target datalayout = "e-m:e-p270:32:32-p271:32:32-p272:64:64-i64:64-i128:128-f80:128-n8:16:32:64-S128"
target triple = "x86_64-pc-linux-gnu"

%struct.ident_t = type { i32, i32, i32, i32, ptr }
%struct.Qureg = type { i32, i32, i32, i64, i64, i32, i32, %struct.ComplexArray, %struct.ComplexArray, %struct.ComplexArray, ptr, ptr, ptr, ptr, ptr, ptr }
%struct.ComplexArray = type { ptr, ptr }

@3 = private unnamed_addr constant %struct.ident_t { i32 0, i32 2, i32 0, i32 22, ptr @0 }, align 8

; Function Attrs: nounwind uwtable
define void @statevec_initPlusState(ptr noundef byval(%struct.Qureg) align 8 %0) #0 {
  %2 = alloca i64, align 8
  %3 = alloca i64, align 8
  %4 = alloca double, align 8
  %5 = alloca ptr, align 8
  %6 = alloca ptr, align 8
  call void @llvm.lifetime.start.p0(i64 8, ptr %2) #3
  call void @llvm.lifetime.start.p0(i64 8, ptr %3) #3
  %7 = getelementptr inbounds nuw %struct.Qureg, ptr %0, i32 0, i32 3
  %8 = load i64, ptr %7, align 8, !tbaa !12
  store i64 %8, ptr %2, align 8, !tbaa !4
  %9 = load i64, ptr %2, align 8, !tbaa !4
  %10 = getelementptr inbounds nuw %struct.Qureg, ptr %0, i32 0, i32 6
  %11 = load i32, ptr %10, align 4, !tbaa !47
  %12 = sext i32 %11 to i64
  %13 = mul nsw i64 %9, %12
  store i64 %13, ptr %3, align 8, !tbaa !4
  call void @llvm.lifetime.start.p0(i64 8, ptr %4) #3
  %14 = load i64, ptr %3, align 8, !tbaa !4
  %15 = sitofp i64 %14 to double
  %16 = call double @sqrt(double noundef %15) #3, !tbaa !8
  %17 = fdiv double 1.000000e+00, %16
  store double %17, ptr %4, align 8, !tbaa !10
  call void @llvm.lifetime.start.p0(i64 8, ptr %5) #3
  %18 = getelementptr inbounds nuw %struct.Qureg, ptr %0, i32 0, i32 7
  %19 = getelementptr inbounds nuw %struct.ComplexArray, ptr %18, i32 0, i32 0
  %20 = load ptr, ptr %19, align 8, !tbaa !27
  store ptr %20, ptr %5, align 8, !tbaa !25
  call void @llvm.lifetime.start.p0(i64 8, ptr %6) #3
  %21 = getelementptr inbounds nuw %struct.Qureg, ptr %0, i32 0, i32 7
  %22 = getelementptr inbounds nuw %struct.ComplexArray, ptr %21, i32 0, i32 1
  %23 = load ptr, ptr %22, align 8, !tbaa !28
  store ptr %23, ptr %6, align 8, !tbaa !25
  call void (ptr, i32, ptr, ...) @__kmpc_fork_call(ptr @3, i32 4, ptr @statevec_initPlusState.omp_outlined, ptr %2, ptr %5, ptr %4, ptr %6)
  call void @llvm.lifetime.end.p0(i64 8, ptr %6) #3
  call void @llvm.lifetime.end.p0(i64 8, ptr %5) #3
  call void @llvm.lifetime.end.p0(i64 8, ptr %4) #3
  call void @llvm.lifetime.end.p0(i64 8, ptr %3) #3
  call void @llvm.lifetime.end.p0(i64 8, ptr %2) #3
  ret void
}