; Function Attrs: nounwind uwtable
define void @statevec_initPlusState(ptr noundef readonly byval(%struct.Qureg) align 8 captures(none) %0) local_unnamed_addr #1 {
  %2 = alloca i64, align 8
  %3 = alloca double, align 8
  %4 = alloca ptr, align 8
  %5 = alloca ptr, align 8
  call void @llvm.lifetime.start.p0(i64 8, ptr nonnull %2) #4
  %6 = getelementptr inbounds nuw i8, ptr %0, i64 16
  %7 = load i64, ptr %6, align 8, !tbaa !8
  store i64 %7, ptr %2, align 8, !tbaa !16
  %8 = getelementptr inbounds nuw i8, ptr %0, i64 36
  %9 = load i32, ptr %8, align 4, !tbaa !33
  %10 = sext i32 %9 to i64
  %11 = mul nsw i64 %7, %10
  call void @llvm.lifetime.start.p0(i64 8, ptr nonnull %3) #4
  %12 = sitofp i64 %11 to double
  %13 = tail call double @sqrt(double noundef %12) #4, !tbaa !18
  %14 = fdiv double 1.000000e+00, %13
  store double %14, ptr %3, align 8, !tbaa !4
  call void @llvm.lifetime.start.p0(i64 8, ptr nonnull %4) #4
  %15 = getelementptr inbounds nuw i8, ptr %0, i64 40
  %16 = load ptr, ptr %15, align 8, !tbaa !22
  store ptr %16, ptr %4, align 8, !tbaa !26
  call void @llvm.lifetime.start.p0(i64 8, ptr nonnull %5) #4
  %17 = getelementptr inbounds nuw i8, ptr %0, i64 48
  %18 = load ptr, ptr %17, align 8, !tbaa !24
  store ptr %18, ptr %5, align 8, !tbaa !26
  call void (ptr, i32, ptr, ...) @__kmpc_fork_call(ptr nonnull @3, i32 4, ptr nonnull @statevec_initPlusState.omp_outlined, ptr nonnull %2, ptr nonnull %4, ptr nonnull %3, ptr nonnull %5)
  call void @llvm.lifetime.end.p0(i64 8, ptr nonnull %5) #4
  call void @llvm.lifetime.end.p0(i64 8, ptr nonnull %4) #4
  call void @llvm.lifetime.end.p0(i64 8, ptr nonnull %3) #4
  call void @llvm.lifetime.end.p0(i64 8, ptr nonnull %2) #4
  ret void
}